target datalayout = "e-m:e-p270:32:32-p271:32:32-p272:64:64-i64:64-i128:128-f80:128-n8:16:32:64-S128"
target triple = "x86_64-pc-linux-gnu"

; Function Attrs: nounwind uwtable
define void @Dau_DecSortSet(i32 noundef %0, i32 noundef %1, ptr noundef %2, ptr noundef %3, ptr noundef %4) #0 {
  %6 = alloca i32, align 4
  %7 = alloca i32, align 4
  %8 = alloca ptr, align 8
  %9 = alloca ptr, align 8
  %10 = alloca ptr, align 8
  %11 = alloca i32, align 4
  %12 = alloca i32, align 4
  %13 = alloca i32, align 4
  %14 = alloca i32, align 4
  %15 = alloca i32, align 4
  store i32 %0, ptr %6, align 4, !tbaa !8
  store i32 %1, ptr %7, align 4, !tbaa !8
  store ptr %2, ptr %8, align 8, !tbaa !10
  store ptr %3, ptr %9, align 8, !tbaa !10
  store ptr %4, ptr %10, align 8, !tbaa !10
  call void @llvm.lifetime.start.p0(i64 4, ptr %11) #11
  call void @llvm.lifetime.start.p0(i64 4, ptr %12) #11
  store i32 0, ptr %12, align 4, !tbaa !8
  call void @llvm.lifetime.start.p0(i64 4, ptr %13) #11
  store i32 0, ptr %13, align 4, !tbaa !8
  call void @llvm.lifetime.start.p0(i64 4, ptr %14) #11
  store i32 0, ptr %14, align 4, !tbaa !8
  store i32 0, ptr %11, align 4, !tbaa !8
  br label %16

16:                                               ; preds = %47, %5
  %17 = load i32, ptr %11, align 4, !tbaa !8
  %18 = load i32, ptr %7, align 4, !tbaa !8
  %19 = icmp slt i32 %17, %18
  br i1 %19, label %20, label %50

20:                                               ; preds = %16
  call void @llvm.lifetime.start.p0(i64 4, ptr %15) #11
  %21 = load i32, ptr %6, align 4, !tbaa !8
  %22 = load i32, ptr %11, align 4, !tbaa !8
  %23 = shl i32 %22, 1
  %24 = lshr i32 %21, %23
  %25 = and i32 %24, 3
  store i32 %25, ptr %15, align 4, !tbaa !8
  %26 = load i32, ptr %15, align 4, !tbaa !8
  %27 = icmp eq i32 %26, 1
  br i1 %27, label %28, label %31

28:                                               ; preds = %20
  %29 = load i32, ptr %12, align 4, !tbaa !8
  %30 = add nsw i32 %29, 1
  store i32 %30, ptr %12, align 4, !tbaa !8
  br label %46

31:                                               ; preds = %20
  %32 = load i32, ptr %15, align 4, !tbaa !8
  %33 = icmp eq i32 %32, 3
  br i1 %33, label %34, label %37

34:                                               ; preds = %31
  %35 = load i32, ptr %13, align 4, !tbaa !8
  %36 = add nsw i32 %35, 1
  store i32 %36, ptr %13, align 4, !tbaa !8
  br label %45

37:                                               ; preds = %31
  %38 = load i32, ptr %15, align 4, !tbaa !8
  %39 = icmp eq i32 %38, 0
  br i1 %39, label %40, label %43

40:                                               ; preds = %37
  %41 = load i32, ptr %14, align 4, !tbaa !8
  %42 = add nsw i32 %41, 1
  store i32 %42, ptr %14, align 4, !tbaa !8
  br label %44

43:                                               ; preds = %37
  br label %44

44:                                               ; preds = %43, %40
  br label %45

45:                                               ; preds = %44, %34
  br label %46

46:                                               ; preds = %45, %28
  call void @llvm.lifetime.end.p0(i64 4, ptr %15) #11
  br label %47

47:                                               ; preds = %46
  %48 = load i32, ptr %11, align 4, !tbaa !8
  %49 = add nsw i32 %48, 1
  store i32 %49, ptr %11, align 4, !tbaa !8
  br label %16, !llvm.loop !28

50:                                               ; preds = %16
  %51 = load i32, ptr %12, align 4, !tbaa !8
  %52 = load ptr, ptr %8, align 8, !tbaa !10
  store i32 %51, ptr %52, align 4, !tbaa !8
  %53 = load i32, ptr %13, align 4, !tbaa !8
  %54 = load ptr, ptr %9, align 8, !tbaa !10
  store i32 %53, ptr %54, align 4, !tbaa !8
  %55 = load i32, ptr %14, align 4, !tbaa !8
  %56 = load ptr, ptr %10, align 8, !tbaa !10
  store i32 %55, ptr %56, align 4, !tbaa !8
  call void @llvm.lifetime.end.p0(i64 4, ptr %14) #11
  call void @llvm.lifetime.end.p0(i64 4, ptr %13) #11
  call void @llvm.lifetime.end.p0(i64 4, ptr %12) #11
  call void @llvm.lifetime.end.p0(i64 4, ptr %11) #11
  ret void
}