; Function Attrs: nofree norecurse nosync nounwind memory(argmem: write) uwtable
define void @Dau_DecSortSet(i32 noundef %0, i32 noundef %1, ptr noundef writeonly captures(none) %2, ptr noundef writeonly captures(none) %3, ptr noundef writeonly captures(none) %4) local_unnamed_addr #5 {
  %6 = icmp sgt i32 %1, 0
  br i1 %6, label %.lr.ph, label %._crit_edge

.lr.ph:                                           ; preds = %5, %16
  %.028 = phi i32 [ %17, %16 ], [ 0, %5 ]
  %.01627 = phi i32 [ %.1, %16 ], [ 0, %5 ]
  %.01726 = phi i32 [ %.118, %16 ], [ 0, %5 ]
  %.01925 = phi i32 [ %.120, %16 ], [ 0, %5 ]
  %7 = shl nuw i32 %.028, 1
  %8 = lshr i32 %0, %7
  %9 = and i32 %8, 3
  switch i32 %9, label %default.unreachable [
    i32 1, label %10
    i32 3, label %12
    i32 0, label %14
    i32 2, label %16
  ]

10:                                               ; preds = %.lr.ph
  %11 = add nsw i32 %.01925, 1
  br label %16

12:                                               ; preds = %.lr.ph
  %13 = add nsw i32 %.01726, 1
  br label %16

14:                                               ; preds = %.lr.ph
  %15 = add nsw i32 %.01627, 1
  br label %16

default.unreachable:                              ; preds = %.lr.ph
  unreachable

16:                                               ; preds = %.lr.ph, %12, %14, %10
  %.120 = phi i32 [ %11, %10 ], [ %.01925, %12 ], [ %.01925, %14 ], [ %.01925, %.lr.ph ]
  %.118 = phi i32 [ %.01726, %10 ], [ %13, %12 ], [ %.01726, %14 ], [ %.01726, %.lr.ph ]
  %.1 = phi i32 [ %.01627, %10 ], [ %.01627, %12 ], [ %15, %14 ], [ %.01627, %.lr.ph ]
  %17 = add nuw nsw i32 %.028, 1
  %exitcond.not = icmp eq i32 %17, %1
  br i1 %exitcond.not, label %._crit_edge, label %.lr.ph, !llvm.loop !27

._crit_edge:                                      ; preds = %16, %5
  %.019.lcssa = phi i32 [ 0, %5 ], [ %.120, %16 ]
  %.017.lcssa = phi i32 [ 0, %5 ], [ %.118, %16 ]
  %.016.lcssa = phi i32 [ 0, %5 ], [ %.1, %16 ]
  store i32 %.019.lcssa, ptr %2, align 4, !tbaa !3
  store i32 %.017.lcssa, ptr %3, align 4, !tbaa !3
  store i32 %.016.lcssa, ptr %4, align 4, !tbaa !3
  ret void
}